; Function Attrs: mustprogress uwtable
define noundef zeroext i1 @_ZNK5arrow9extension8UuidType15ExtensionEqualsERKNS_13ExtensionTypeE(ptr noundef nonnull align 8 dereferenceable(88) %0, ptr noundef nonnull align 8 dereferenceable(88) %1) unnamed_addr #0 align 2 personality ptr @__gxx_personality_v0 {
  %3 = alloca %"class.std::__cxx11::basic_string", align 8
  %4 = alloca %"class.std::__cxx11::basic_string", align 8
  call void @llvm.lifetime.start.p0(i64 32, ptr nonnull %3) #19
  %5 = load ptr, ptr %1, align 8, !tbaa !3
  %6 = getelementptr inbounds nuw i8, ptr %5, i64 80
  %7 = load ptr, ptr %6, align 8
  call void %7(ptr dead_on_unwind nonnull writable sret(%"class.std::__cxx11::basic_string") align 8 %3, ptr noundef nonnull align 8 dereferenceable(88) %1)
  call void @llvm.lifetime.start.p0(i64 32, ptr nonnull %4) #19
  %8 = load ptr, ptr %0, align 8, !tbaa !3
  %9 = getelementptr inbounds nuw i8, ptr %8, i64 80
  %10 = load ptr, ptr %9, align 8
  invoke void %10(ptr dead_on_unwind nonnull writable sret(%"class.std::__cxx11::basic_string") align 8 %4, ptr noundef nonnull align 8 dereferenceable(88) %0)
          to label %11 unwind label %36

11:                                               ; preds = %2
  %12 = getelementptr inbounds nuw i8, ptr %3, i64 8
  %13 = load i64, ptr %12, align 8, !tbaa !6
  %14 = getelementptr inbounds nuw i8, ptr %4, i64 8
  %15 = load i64, ptr %14, align 8, !tbaa !6
  %16 = icmp eq i64 %13, %15
  br i1 %16, label %17, label %._ZSteqIcEN9__gnu_cxx11__enable_ifIXsr9__is_charIT_EE7__valueEbE6__typeERKNSt7__cxx1112basic_stringIS2_St11char_traitsIS2_ESaIS2_EEESC_.exit_crit_edge

._ZSteqIcEN9__gnu_cxx11__enable_ifIXsr9__is_charIT_EE7__valueEbE6__typeERKNSt7__cxx1112basic_stringIS2_St11char_traitsIS2_ESaIS2_EEESC_.exit_crit_edge: ; preds = %11
  %.pre = load ptr, ptr %4, align 8, !tbaa !13
  br label %_ZSteqIcEN9__gnu_cxx11__enable_ifIXsr9__is_charIT_EE7__valueEbE6__typeERKNSt7__cxx1112basic_stringIS2_St11char_traitsIS2_ESaIS2_EEESC_.exit

17:                                               ; preds = %11
  %18 = icmp eq i64 %13, 0
  %.pre9 = load ptr, ptr %4, align 8, !tbaa !13
  br i1 %18, label %_ZSteqIcEN9__gnu_cxx11__enable_ifIXsr9__is_charIT_EE7__valueEbE6__typeERKNSt7__cxx1112basic_stringIS2_St11char_traitsIS2_ESaIS2_EEESC_.exit, label %19

19:                                               ; preds = %17
  %20 = load ptr, ptr %3, align 8, !tbaa !13
  %bcmp.i = call i32 @bcmp(ptr %20, ptr %.pre9, i64 %13)
  %21 = icmp eq i32 %bcmp.i, 0
  br label %_ZSteqIcEN9__gnu_cxx11__enable_ifIXsr9__is_charIT_EE7__valueEbE6__typeERKNSt7__cxx1112basic_stringIS2_St11char_traitsIS2_ESaIS2_EEESC_.exit

_ZSteqIcEN9__gnu_cxx11__enable_ifIXsr9__is_charIT_EE7__valueEbE6__typeERKNSt7__cxx1112basic_stringIS2_St11char_traitsIS2_ESaIS2_EEESC_.exit: ; preds = %._ZSteqIcEN9__gnu_cxx11__enable_ifIXsr9__is_charIT_EE7__valueEbE6__typeERKNSt7__cxx1112basic_stringIS2_St11char_traitsIS2_ESaIS2_EEESC_.exit_crit_edge, %17, %19
  %22 = phi ptr [ %.pre, %._ZSteqIcEN9__gnu_cxx11__enable_ifIXsr9__is_charIT_EE7__valueEbE6__typeERKNSt7__cxx1112basic_stringIS2_St11char_traitsIS2_ESaIS2_EEESC_.exit_crit_edge ], [ %.pre9, %19 ], [ %.pre9, %17 ]
  %23 = phi i1 [ false, %._ZSteqIcEN9__gnu_cxx11__enable_ifIXsr9__is_charIT_EE7__valueEbE6__typeERKNSt7__cxx1112basic_stringIS2_St11char_traitsIS2_ESaIS2_EEESC_.exit_crit_edge ], [ %21, %19 ], [ true, %17 ]
  %24 = getelementptr inbounds nuw i8, ptr %4, i64 16
  %25 = icmp eq ptr %22, %24
  br i1 %25, label %_ZNKSt7__cxx1112basic_stringIcSt11char_traitsIcESaIcEE11_M_is_localEv.exit.thread.i.i, label %_ZNKSt7__cxx1112basic_stringIcSt11char_traitsIcESaIcEE11_M_is_localEv.exit.i.i

_ZNKSt7__cxx1112basic_stringIcSt11char_traitsIcESaIcEE11_M_is_localEv.exit.thread.i.i: ; preds = %_ZSteqIcEN9__gnu_cxx11__enable_ifIXsr9__is_charIT_EE7__valueEbE6__typeERKNSt7__cxx1112basic_stringIS2_St11char_traitsIS2_ESaIS2_EEESC_.exit
  %26 = icmp ult i64 %15, 16
  call void @llvm.assume(i1 %26)
  br label %_ZNSt7__cxx1112basic_stringIcSt11char_traitsIcESaIcEED2Ev.exit

_ZNKSt7__cxx1112basic_stringIcSt11char_traitsIcESaIcEE11_M_is_localEv.exit.i.i: ; preds = %_ZSteqIcEN9__gnu_cxx11__enable_ifIXsr9__is_charIT_EE7__valueEbE6__typeERKNSt7__cxx1112basic_stringIS2_St11char_traitsIS2_ESaIS2_EEESC_.exit
  %27 = load i64, ptr %24, align 8, !tbaa !14
  %28 = add i64 %27, 1
  call void @_ZdlPvm(ptr noundef %22, i64 noundef %28) #20
  br label %_ZNSt7__cxx1112basic_stringIcSt11char_traitsIcESaIcEED2Ev.exit

_ZNSt7__cxx1112basic_stringIcSt11char_traitsIcESaIcEED2Ev.exit: ; preds = %_ZNKSt7__cxx1112basic_stringIcSt11char_traitsIcESaIcEE11_M_is_localEv.exit.thread.i.i, %_ZNKSt7__cxx1112basic_stringIcSt11char_traitsIcESaIcEE11_M_is_localEv.exit.i.i
  call void @llvm.lifetime.end.p0(i64 32, ptr nonnull %4) #19
  %29 = load ptr, ptr %3, align 8, !tbaa !13
  %30 = getelementptr inbounds nuw i8, ptr %3, i64 16
  %31 = icmp eq ptr %29, %30
  br i1 %31, label %_ZNKSt7__cxx1112basic_stringIcSt11char_traitsIcESaIcEE11_M_is_localEv.exit.thread.i.i4, label %_ZNKSt7__cxx1112basic_stringIcSt11char_traitsIcESaIcEE11_M_is_localEv.exit.i.i3

_ZNKSt7__cxx1112basic_stringIcSt11char_traitsIcESaIcEE11_M_is_localEv.exit.thread.i.i4: ; preds = %_ZNSt7__cxx1112basic_stringIcSt11char_traitsIcESaIcEED2Ev.exit
  %32 = load i64, ptr %12, align 8, !tbaa !6
  %33 = icmp ult i64 %32, 16
  call void @llvm.assume(i1 %33)
  br label %_ZNSt7__cxx1112basic_stringIcSt11char_traitsIcESaIcEED2Ev.exit5

_ZNKSt7__cxx1112basic_stringIcSt11char_traitsIcESaIcEE11_M_is_localEv.exit.i.i3: ; preds = %_ZNSt7__cxx1112basic_stringIcSt11char_traitsIcESaIcEED2Ev.exit
  %34 = load i64, ptr %30, align 8, !tbaa !14
  %35 = add i64 %34, 1
  call void @_ZdlPvm(ptr noundef %29, i64 noundef %35) #20
  br label %_ZNSt7__cxx1112basic_stringIcSt11char_traitsIcESaIcEED2Ev.exit5

_ZNSt7__cxx1112basic_stringIcSt11char_traitsIcESaIcEED2Ev.exit5: ; preds = %_ZNKSt7__cxx1112basic_stringIcSt11char_traitsIcESaIcEE11_M_is_localEv.exit.thread.i.i4, %_ZNKSt7__cxx1112basic_stringIcSt11char_traitsIcESaIcEE11_M_is_localEv.exit.i.i3
  call void @llvm.lifetime.end.p0(i64 32, ptr nonnull %3) #19
  ret i1 %23

36:                                               ; preds = %2
  %37 = landingpad { ptr, i32 }
          cleanup
  call void @llvm.lifetime.end.p0(i64 32, ptr nonnull %4) #19
  %38 = load ptr, ptr %3, align 8, !tbaa !13
  %39 = getelementptr inbounds nuw i8, ptr %3, i64 16
  %40 = icmp eq ptr %38, %39
  br i1 %40, label %_ZNKSt7__cxx1112basic_stringIcSt11char_traitsIcESaIcEE11_M_is_localEv.exit.thread.i.i7, label %_ZNKSt7__cxx1112basic_stringIcSt11char_traitsIcESaIcEE11_M_is_localEv.exit.i.i6

_ZNKSt7__cxx1112basic_stringIcSt11char_traitsIcESaIcEE11_M_is_localEv.exit.thread.i.i7: ; preds = %36
  %41 = getelementptr inbounds nuw i8, ptr %3, i64 8
  %42 = load i64, ptr %41, align 8, !tbaa !6
  %43 = icmp ult i64 %42, 16
  call void @llvm.assume(i1 %43)
  br label %_ZNSt7__cxx1112basic_stringIcSt11char_traitsIcESaIcEED2Ev.exit8

_ZNKSt7__cxx1112basic_stringIcSt11char_traitsIcESaIcEE11_M_is_localEv.exit.i.i6: ; preds = %36
  %44 = load i64, ptr %39, align 8, !tbaa !14
  %45 = add i64 %44, 1
  call void @_ZdlPvm(ptr noundef %38, i64 noundef %45) #20
  br label %_ZNSt7__cxx1112basic_stringIcSt11char_traitsIcESaIcEED2Ev.exit8

_ZNSt7__cxx1112basic_stringIcSt11char_traitsIcESaIcEED2Ev.exit8: ; preds = %_ZNKSt7__cxx1112basic_stringIcSt11char_traitsIcESaIcEE11_M_is_localEv.exit.thread.i.i7, %_ZNKSt7__cxx1112basic_stringIcSt11char_traitsIcESaIcEE11_M_is_localEv.exit.i.i6
  call void @llvm.lifetime.end.p0(i64 32, ptr nonnull %3) #19
  resume { ptr, i32 } %37
}